; Function Attrs: mustprogress uwtable
define void @_ZN9grpc_core29FakeResolverResponseGenerator21ReresolutionRequestedEv(ptr noundef nonnull align 8 dereferenceable(185) %this) local_unnamed_addr #3 align 2 personality ptr @__gxx_personality_v0 {
entry:
  %reresolution_mu_ = getelementptr inbounds i8, ptr %this, i64 168
  tail call void @_ZN4absl12lts_202308025Mutex4LockEv(ptr noundef nonnull align 8 dereferenceable(8) %reresolution_mu_)
  %reresolution_requested_ = getelementptr inbounds i8, ptr %this, i64 184
  store i8 1, ptr %reresolution_requested_, align 8
  %reresolution_cv_ = getelementptr inbounds i8, ptr %this, i64 176
  %0 = load ptr, ptr %reresolution_cv_, align 8
  %cmp.not = icmp eq ptr %0, null
  br i1 %cmp.not, label %if.end, label %if.then

if.then:                                          ; preds = %entry
  invoke void @_ZN4absl12lts_202308027CondVar9SignalAllEv(ptr noundef nonnull align 8 dereferenceable(8) %0)
          to label %if.end unwind label %lpad

lpad:                                             ; preds = %if.then
  %1 = landingpad { ptr, i32 }
          cleanup
  invoke void @_ZN4absl12lts_202308025Mutex6UnlockEv(ptr noundef nonnull align 8 dereferenceable(8) %reresolution_mu_)
          to label %_ZN4absl12lts_202308029MutexLockD2Ev.exit unwind label %terminate.lpad.i

terminate.lpad.i:                                 ; preds = %lpad
  %2 = landingpad { ptr, i32 }
          catch ptr null
  %3 = extractvalue { ptr, i32 } %2, 0
  tail call void @__clang_call_terminate(ptr %3) #18
  unreachable

_ZN4absl12lts_202308029MutexLockD2Ev.exit:        ; preds = %lpad
  resume { ptr, i32 } %1

if.end:                                           ; preds = %if.then, %entry
  invoke void @_ZN4absl12lts_202308025Mutex6UnlockEv(ptr noundef nonnull align 8 dereferenceable(8) %reresolution_mu_)
          to label %_ZN4absl12lts_202308029MutexLockD2Ev.exit2 unwind label %terminate.lpad.i1

terminate.lpad.i1:                                ; preds = %if.end
  %4 = landingpad { ptr, i32 }
          catch ptr null
  %5 = extractvalue { ptr, i32 } %4, 0
  tail call void @__clang_call_terminate(ptr %5) #18
  unreachable

_ZN4absl12lts_202308029MutexLockD2Ev.exit2:       ; preds = %if.end
  ret void
}